Certificate:
    Data:
        Version: 3 (0x2)
        Serial Number: 1 (0x1)
    Signature Algorithm: sha256WithRSAEncryption
        Issuer: C=CN, ST=chengdu, O=ZILIN, CN=AliServer
        Validity
            Not Before: Mar 10 08:37:18 2020 GMT
            Not After : Mar  8 08:37:18 2030 GMT
        Subject: C=CN, ST=chengdu, O=ZILIN, CN=47.103.194.29
        Subject Public Key Info:
            Public Key Algorithm: rsaEncryption
                Public-Key: (2048 bit)
                Modulus:
                    00:b6:de:53:31:2d:4c:db:46:19:2e:d1:ed:ae:37:
                    e3:df:87:ee:16:02:cb:06:1c:ed:6c:32:6c:46:5b:
                    08:45:33:82:29:c3:1f:3f:6f:1a:b9:e0:8f:4b:67:
                    1a:6f:13:19:2c:f2:63:54:93:8a:2a:44:31:53:15:
                    e5:57:ae:e2:95:96:35:15:31:23:65:83:e4:2b:56:
                    d7:99:eb:e2:2e:15:2a:23:c4:72:50:58:ac:21:14:
                    e4:da:20:05:14:ae:14:4a:1c:bb:2a:a5:5b:54:2d:
                    c8:25:bf:f2:7f:79:28:9c:eb:1d:b4:23:44:9d:c0:
                    3a:fe:1b:14:87:95:8c:5a:65:46:17:14:42:48:53:
                    c3:14:76:cb:4d:41:7d:f3:4a:7c:dc:ac:ce:1e:47:
                    5a:45:64:7e:b8:3a:5f:ba:07:cb:2d:ca:e4:a9:e2:
                    3b:06:96:9c:7e:65:bc:51:52:1e:9b:b9:7f:32:d3:
                    83:37:4c:ee:55:a7:98:3e:cd:1f:cf:8e:3d:a9:32:
                    a9:a1:52:47:36:87:cf:c6:b7:b4:e2:2a:3e:2e:57:
                    f2:d5:fc:1a:9f:b0:43:fb:57:01:35:07:8f:eb:fb:
                    e3:40:2d:5d:a5:f7:99:8c:d0:ee:f7:42:87:bf:31:
                    66:36:d5:ab:50:d1:c2:bd:66:4d:88:51:eb:fa:05:
                    6c:75
                Exponent: 65537 (0x10001)
        X509v3 extensions:
            X509v3 Basic Constraints: 
                CA:FALSE
            X509v3 Key Usage: 
                Digital Signature, Non Repudiation, Key Encipherment
    Signature Algorithm: sha256WithRSAEncryption
         0f:b3:99:a7:f4:6f:37:df:87:b3:71:f5:df:14:6f:29:7a:bc:
         68:88:75:ea:5c:ec:55:69:d2:d3:6b:ab:6f:1e:ee:9a:45:d9:
         f1:50:7d:1f:0f:d6:18:2c:d4:31:b8:4a:e4:97:06:68:fc:8b:
         f8:56:27:15:2e:97:1a:7a:00:5a:6e:e7:1d:80:41:ad:fa:f8:
         10:e6:be:12:95:42:14:04:bc:7d:9a:a9:67:e0:39:ad:a0:f7:
         2f:cf:ea:1f:38:95:f4:4b:30:9e:fe:83:c5:ce:a8:68:49:1e:
         e0:86:3b:5d:15:0f:eb:e1:39:94:99:04:7f:2d:d7:52:07:a6:
         bc:eb:f8:1a:e7:55:eb:e5:3f:13:b2:71:a4:c5:c5:ff:3e:85:
         4e:65:7d:8f:9b:e4:52:c7:c1:da:14:4c:25:60:1d:72:2b:43:
         22:24:a2:de:27:40:9a:99:b2:07:ab:02:b8:73:f4:01:f5:c9:
         df:5e:23:be:81:25:dc:1b:6d:78:52:05:11:50:71:fc:cf:4d:
         fc:ff:69:59:8e:4b:71:67:6f:69:02:71:9f:ec:9c:bf:71:d8:
         24:8a:55:ba:e6:b6:49:97:66:35:1a:01:20:83:9b:19:5b:bf:
         51:9c:78:72:bb:c1:eb:1d:bd:f4:46:9e:16:43:1d:26:42:13:
         8c:0c:67:49
-----BEGIN CERTIFICATE-----
MIIDHzCCAgegAwIBAgIBATANBgkqhkiG9w0BAQsFADBDMQswCQYDVQQGEwJDTjEQ
MA4GA1UECAwHY2hlbmdkdTEOMAwGA1UECgwFWklMSU4xEjAQBgNVBAMMCUFsaVNl
cnZlcjAeFw0yMDAzMTAwODM3MThaFw0zMDAzMDgwODM3MThaMEcxCzAJBgNVBAYT
AkNOMRAwDgYDVQQIDAdjaGVuZ2R1MQ4wDAYDVQQKDAVaSUxJTjEWMBQGA1UEAwwN
NDcuMTAzLjE5NC4yOTCCASIwDQYJKoZIhvcNAQEBBQADggEPADCCAQoCggEBALbe
UzEtTNtGGS7R7a4349+H7hYCywYc7WwybEZbCEUzginDHz9vGrngj0tnGm8TGSzy
Y1STiipEMVMV5Veu4pWWNRUxI2WD5CtW15nr4i4VKiPEclBYrCEU5NogBRSuFEoc
uyqlW1QtyCW/8n95KJzrHbQjRJ3AOv4bFIeVjFplRhcUQkhTwxR2y01BffNKfNys
zh5HWkVkfrg6X7oHyy3K5KniOwaWnH5lvFFSHpu5fzLTgzdM7lWnmD7NH8+OPaky
qaFSRzaHz8a3tOIqPi5X8tX8Gp+wQ/tXATUHj+v740AtXaX3mYzQ7vdCh78xZjbV
q1DRwr1mTYhR6/oFbHUCAwEAAaMaMBgwCQYDVR0TBAIwADALBgNVHQ8EBAMCBeAw
DQYJKoZIhvcNAQELBQADggEBAA+zmaf0bzffh7Nx9d8Ubyl6vGiIdepc7FVp0tNr
q28e7ppF2fFQfR8P1hgs1DG4SuSXBmj8i/hWJxUulxp6AFpu5x2AQa36+BDmvhKV
QhQEvH2aqWfgOa2g9y/P6h84lfRLMJ7+g8XOqGhJHuCGO10VD+vhOZSZBH8t11IH
przr+BrnVevlPxOycaTFxf8+hU5lfY+b5FLHwdoUTCVgHXIrQyIkot4nQJqZsger
Arhz9AH1yd9eI76BJdwbbXhSBRFQcfzPTfz/aVmOS3Fnb2kCcZ/snL9x2CSKVbrm
tkmXZjUaASCDmxlbv1GceHK7wesdvfRGnhZDHSZCE4wMZ0k=
-----END CERTIFICATE-----
